; ModuleID = '39/1805.c'
source_filename = "39/1805.c"
target datalayout = "e-m:e-p270:32:32-p271:32:32-p272:64:64-i64:64-f80:128-n8:16:32:64-S128"
target triple = "x86_64-pc-linux-gnu"

%struct.student = type { [20 x i8], i32, i32, i8, i8, i32, i32 }

@.str = private unnamed_addr constant [4 x i8] c"%d\0A\00", align 1
@.str.1 = private unnamed_addr constant [18 x i8] c"%s %d %d %c %c %d\00", align 1
@.str.2 = private unnamed_addr constant [4 x i8] c"%s\0A\00", align 1

; Function Attrs: noinline nounwind uwtable
define dso_local void @main() #0 {
  %1 = alloca [100 x %struct.student], align 16
  %2 = alloca i32, align 4
  %3 = alloca i32, align 4
  %4 = alloca i32, align 4
  %5 = alloca i32, align 4
  %6 = call i32 (i8*, ...) @__isoc99_scanf(i8* getelementptr inbounds ([4 x i8], [4 x i8]* @.str, i64 0, i64 0), i32* %2)
  store i32 0, i32* %3, align 4
  store i32 0, i32* %4, align 4
  store i32 0, i32* %5, align 4
  br label %7

7:                                                ; preds = %183, %0
  %8 = load i32, i32* %3, align 4
  %9 = load i32, i32* %2, align 4
  %10 = icmp slt i32 %8, %9
  br i1 %10, label %11, label %186

11:                                               ; preds = %7
  %12 = load i32, i32* %3, align 4
  %13 = sext i32 %12 to i64
  %14 = getelementptr inbounds [100 x %struct.student], [100 x %struct.student]* %1, i64 0, i64 %13
  %15 = getelementptr inbounds %struct.student, %struct.student* %14, i32 0, i32 0
  %16 = getelementptr inbounds [20 x i8], [20 x i8]* %15, i64 0, i64 0
  %17 = load i32, i32* %3, align 4
  %18 = sext i32 %17 to i64
  %19 = getelementptr inbounds [100 x %struct.student], [100 x %struct.student]* %1, i64 0, i64 %18
  %20 = getelementptr inbounds %struct.student, %struct.student* %19, i32 0, i32 1
  %21 = load i32, i32* %3, align 4
  %22 = sext i32 %21 to i64
  %23 = getelementptr inbounds [100 x %struct.student], [100 x %struct.student]* %1, i64 0, i64 %22
  %24 = getelementptr inbounds %struct.student, %struct.student* %23, i32 0, i32 2
  %25 = load i32, i32* %3, align 4
  %26 = sext i32 %25 to i64
  %27 = getelementptr inbounds [100 x %struct.student], [100 x %struct.student]* %1, i64 0, i64 %26
  %28 = getelementptr inbounds %struct.student, %struct.student* %27, i32 0, i32 3
  %29 = load i32, i32* %3, align 4
  %30 = sext i32 %29 to i64
  %31 = getelementptr inbounds [100 x %struct.student], [100 x %struct.student]* %1, i64 0, i64 %30
  %32 = getelementptr inbounds %struct.student, %struct.student* %31, i32 0, i32 4
  %33 = load i32, i32* %3, align 4
  %34 = sext i32 %33 to i64
  %35 = getelementptr inbounds [100 x %struct.student], [100 x %struct.student]* %1, i64 0, i64 %34
  %36 = getelementptr inbounds %struct.student, %struct.student* %35, i32 0, i32 5
  %37 = call i32 (i8*, ...) @__isoc99_scanf(i8* getelementptr inbounds ([18 x i8], [18 x i8]* @.str.1, i64 0, i64 0), i8* %16, i32* %20, i32* %24, i8* %28, i8* %32, i32* %36)
  %38 = load i32, i32* %3, align 4
  %39 = sext i32 %38 to i64
  %40 = getelementptr inbounds [100 x %struct.student], [100 x %struct.student]* %1, i64 0, i64 %39
  %41 = getelementptr inbounds %struct.student, %struct.student* %40, i32 0, i32 6
  store i32 0, i32* %41, align 4
  %42 = load i32, i32* %3, align 4
  %43 = sext i32 %42 to i64
  %44 = getelementptr inbounds [100 x %struct.student], [100 x %struct.student]* %1, i64 0, i64 %43
  %45 = getelementptr inbounds %struct.student, %struct.student* %44, i32 0, i32 1
  %46 = load i32, i32* %45, align 4
  %47 = icmp sgt i32 %46, 80
  br i1 %47, label %48, label %66

48:                                               ; preds = %11
  %49 = load i32, i32* %3, align 4
  %50 = sext i32 %49 to i64
  %51 = getelementptr inbounds [100 x %struct.student], [100 x %struct.student]* %1, i64 0, i64 %50
  %52 = getelementptr inbounds %struct.student, %struct.student* %51, i32 0, i32 5
  %53 = load i32, i32* %52, align 8
  %54 = icmp sge i32 %53, 1
  br i1 %54, label %55, label %66

55:                                               ; preds = %48
  %56 = load i32, i32* %3, align 4
  %57 = sext i32 %56 to i64
  %58 = getelementptr inbounds [100 x %struct.student], [100 x %struct.student]* %1, i64 0, i64 %57
  %59 = getelementptr inbounds %struct.student, %struct.student* %58, i32 0, i32 6
  %60 = load i32, i32* %59, align 4
  %61 = add nsw i32 %60, 8000
  %62 = load i32, i32* %3, align 4
  %63 = sext i32 %62 to i64
  %64 = getelementptr inbounds [100 x %struct.student], [100 x %struct.student]* %1, i64 0, i64 %63
  %65 = getelementptr inbounds %struct.student, %struct.student* %64, i32 0, i32 6
  store i32 %61, i32* %65, align 4
  br label %66

66:                                               ; preds = %55, %48, %11
  %67 = load i32, i32* %3, align 4
  %68 = sext i32 %67 to i64
  %69 = getelementptr inbounds [100 x %struct.student], [100 x %struct.student]* %1, i64 0, i64 %68
  %70 = getelementptr inbounds %struct.student, %struct.student* %69, i32 0, i32 1
  %71 = load i32, i32* %70, align 4
  %72 = icmp sgt i32 %71, 85
  br i1 %72, label %73, label %91

73:                                               ; preds = %66
  %74 = load i32, i32* %3, align 4
  %75 = sext i32 %74 to i64
  %76 = getelementptr inbounds [100 x %struct.student], [100 x %struct.student]* %1, i64 0, i64 %75
  %77 = getelementptr inbounds %struct.student, %struct.student* %76, i32 0, i32 2
  %78 = load i32, i32* %77, align 8
  %79 = icmp sgt i32 %78, 80
  br i1 %79, label %80, label %91

80:                                               ; preds = %73
  %81 = load i32, i32* %3, align 4
  %82 = sext i32 %81 to i64
  %83 = getelementptr inbounds [100 x %struct.student], [100 x %struct.student]* %1, i64 0, i64 %82
  %84 = getelementptr inbounds %struct.student, %struct.student* %83, i32 0, i32 6
  %85 = load i32, i32* %84, align 4
  %86 = add nsw i32 %85, 4000
  %87 = load i32, i32* %3, align 4
  %88 = sext i32 %87 to i64
  %89 = getelementptr inbounds [100 x %struct.student], [100 x %struct.student]* %1, i64 0, i64 %88
  %90 = getelementptr inbounds %struct.student, %struct.student* %89, i32 0, i32 6
  store i32 %86, i32* %90, align 4
  br label %91

91:                                               ; preds = %80, %73, %66
  %92 = load i32, i32* %3, align 4
  %93 = sext i32 %92 to i64
  %94 = getelementptr inbounds [100 x %struct.student], [100 x %struct.student]* %1, i64 0, i64 %93
  %95 = getelementptr inbounds %struct.student, %struct.student* %94, i32 0, i32 1
  %96 = load i32, i32* %95, align 4
  %97 = icmp sgt i32 %96, 90
  br i1 %97, label %98, label %109

98:                                               ; preds = %91
  %99 = load i32, i32* %3, align 4
  %100 = sext i32 %99 to i64
  %101 = getelementptr inbounds [100 x %struct.student], [100 x %struct.student]* %1, i64 0, i64 %100
  %102 = getelementptr inbounds %struct.student, %struct.student* %101, i32 0, i32 6
  %103 = load i32, i32* %102, align 4
  %104 = add nsw i32 %103, 2000
  %105 = load i32, i32* %3, align 4
  %106 = sext i32 %105 to i64
  %107 = getelementptr inbounds [100 x %struct.student], [100 x %struct.student]* %1, i64 0, i64 %106
  %108 = getelementptr inbounds %struct.student, %struct.student* %107, i32 0, i32 6
  store i32 %104, i32* %108, align 4
  br label %109

109:                                              ; preds = %98, %91
  %110 = load i32, i32* %3, align 4
  %111 = sext i32 %110 to i64
  %112 = getelementptr inbounds [100 x %struct.student], [100 x %struct.student]* %1, i64 0, i64 %111
  %113 = getelementptr inbounds %struct.student, %struct.student* %112, i32 0, i32 1
  %114 = load i32, i32* %113, align 4
  %115 = icmp sgt i32 %114, 85
  br i1 %115, label %116, label %135

116:                                              ; preds = %109
  %117 = load i32, i32* %3, align 4
  %118 = sext i32 %117 to i64
  %119 = getelementptr inbounds [100 x %struct.student], [100 x %struct.student]* %1, i64 0, i64 %118
  %120 = getelementptr inbounds %struct.student, %struct.student* %119, i32 0, i32 4
  %121 = load i8, i8* %120, align 1
  %122 = sext i8 %121 to i32
  %123 = icmp eq i32 %122, 89
  br i1 %123, label %124, label %135

124:                                              ; preds = %116
  %125 = load i32, i32* %3, align 4
  %126 = sext i32 %125 to i64
  %127 = getelementptr inbounds [100 x %struct.student], [100 x %struct.student]* %1, i64 0, i64 %126
  %128 = getelementptr inbounds %struct.student, %struct.student* %127, i32 0, i32 6
  %129 = load i32, i32* %128, align 4
  %130 = add nsw i32 %129, 1000
  %131 = load i32, i32* %3, align 4
  %132 = sext i32 %131 to i64
  %133 = getelementptr inbounds [100 x %struct.student], [100 x %struct.student]* %1, i64 0, i64 %132
  %134 = getelementptr inbounds %struct.student, %struct.student* %133, i32 0, i32 6
  store i32 %130, i32* %134, align 4
  br label %135

135:                                              ; preds = %124, %116, %109
  %136 = load i32, i32* %3, align 4
  %137 = sext i32 %136 to i64
  %138 = getelementptr inbounds [100 x %struct.student], [100 x %struct.student]* %1, i64 0, i64 %137
  %139 = getelementptr inbounds %struct.student, %struct.student* %138, i32 0, i32 2
  %140 = load i32, i32* %139, align 8
  %141 = icmp sgt i32 %140, 80
  br i1 %141, label %142, label %161

142:                                              ; preds = %135
  %143 = load i32, i32* %3, align 4
  %144 = sext i32 %143 to i64
  %145 = getelementptr inbounds [100 x %struct.student], [100 x %struct.student]* %1, i64 0, i64 %144
  %146 = getelementptr inbounds %struct.student, %struct.student* %145, i32 0, i32 3
  %147 = load i8, i8* %146, align 4
  %148 = sext i8 %147 to i32
  %149 = icmp eq i32 %148, 89
  br i1 %149, label %150, label %161

150:                                              ; preds = %142
  %151 = load i32, i32* %3, align 4
  %152 = sext i32 %151 to i64
  %153 = getelementptr inbounds [100 x %struct.student], [100 x %struct.student]* %1, i64 0, i64 %152
  %154 = getelementptr inbounds %struct.student, %struct.student* %153, i32 0, i32 6
  %155 = load i32, i32* %154, align 4
  %156 = add nsw i32 %155, 850
  %157 = load i32, i32* %3, align 4
  %158 = sext i32 %157 to i64
  %159 = getelementptr inbounds [100 x %struct.student], [100 x %struct.student]* %1, i64 0, i64 %158
  %160 = getelementptr inbounds %struct.student, %struct.student* %159, i32 0, i32 6
  store i32 %156, i32* %160, align 4
  br label %161

161:                                              ; preds = %150, %142, %135
  %162 = load i32, i32* %3, align 4
  %163 = sext i32 %162 to i64
  %164 = getelementptr inbounds [100 x %struct.student], [100 x %struct.student]* %1, i64 0, i64 %163
  %165 = getelementptr inbounds %struct.student, %struct.student* %164, i32 0, i32 6
  %166 = load i32, i32* %165, align 4
  %167 = load i32, i32* %4, align 4
  %168 = add nsw i32 %167, %166
  store i32 %168, i32* %4, align 4
  %169 = load i32, i32* %5, align 4
  %170 = sext i32 %169 to i64
  %171 = getelementptr inbounds [100 x %struct.student], [100 x %struct.student]* %1, i64 0, i64 %170
  %172 = getelementptr inbounds %struct.student, %struct.student* %171, i32 0, i32 6
  %173 = load i32, i32* %172, align 4
  %174 = load i32, i32* %3, align 4
  %175 = sext i32 %174 to i64
  %176 = getelementptr inbounds [100 x %struct.student], [100 x %struct.student]* %1, i64 0, i64 %175
  %177 = getelementptr inbounds %struct.student, %struct.student* %176, i32 0, i32 6
  %178 = load i32, i32* %177, align 4
  %179 = icmp slt i32 %173, %178
  br i1 %179, label %180, label %182

180:                                              ; preds = %161
  %181 = load i32, i32* %3, align 4
  store i32 %181, i32* %5, align 4
  br label %182

182:                                              ; preds = %180, %161
  br label %183

183:                                              ; preds = %182
  %184 = load i32, i32* %3, align 4
  %185 = add nsw i32 %184, 1
  store i32 %185, i32* %3, align 4
  br label %7

186:                                              ; preds = %7
  %187 = load i32, i32* %5, align 4
  %188 = sext i32 %187 to i64
  %189 = getelementptr inbounds [100 x %struct.student], [100 x %struct.student]* %1, i64 0, i64 %188
  %190 = getelementptr inbounds %struct.student, %struct.student* %189, i32 0, i32 0
  %191 = getelementptr inbounds [20 x i8], [20 x i8]* %190, i64 0, i64 0
  %192 = call i32 (i8*, ...) @printf(i8* getelementptr inbounds ([4 x i8], [4 x i8]* @.str.2, i64 0, i64 0), i8* %191)
  %193 = load i32, i32* %5, align 4
  %194 = sext i32 %193 to i64
  %195 = getelementptr inbounds [100 x %struct.student], [100 x %struct.student]* %1, i64 0, i64 %194
  %196 = getelementptr inbounds %struct.student, %struct.student* %195, i32 0, i32 6
  %197 = load i32, i32* %196, align 4
  %198 = call i32 (i8*, ...) @printf(i8* getelementptr inbounds ([4 x i8], [4 x i8]* @.str, i64 0, i64 0), i32 %197)
  %199 = load i32, i32* %4, align 4
  %200 = call i32 (i8*, ...) @printf(i8* getelementptr inbounds ([4 x i8], [4 x i8]* @.str, i64 0, i64 0), i32 %199)
  ret void
}

declare dso_local i32 @__isoc99_scanf(i8*, ...) #1

declare dso_local i32 @printf(i8*, ...) #1


!llvm.module.flags = !{!0}
!llvm.ident = !{!1}

!0 = !{i32 1, !"wchar_size", i32 4}
!1 = !{!"clang version 10.0.0-4ubuntu1 "}
